; ModuleID = '29/717.c'
source_filename = "29/717.c"
target datalayout = "e-m:e-p270:32:32-p271:32:32-p272:64:64-i64:64-f80:128-n8:16:32:64-S128"
target triple = "x86_64-pc-linux-gnu"

@.str = private unnamed_addr constant [3 x i8] c"%d\00", align 1
@.str.1 = private unnamed_addr constant [6 x i8] c"%.3f\0A\00", align 1

; Function Attrs: noinline nounwind uwtable
define dso_local float @f(i32 %0) #0 {
  %2 = alloca float, align 4
  %3 = alloca i32, align 4
  %4 = alloca i32, align 4
  store i32 %0, i32* %3, align 4
  %5 = load i32, i32* %3, align 4
  %6 = icmp eq i32 %5, 1
  br i1 %6, label %7, label %8

7:                                                ; preds = %1
  store float 1.000000e+00, float* %2, align 4
  br label %23

8:                                                ; preds = %1
  %9 = load i32, i32* %3, align 4
  %10 = icmp eq i32 %9, 2
  br i1 %10, label %11, label %12

11:                                               ; preds = %8
  store float 2.000000e+00, float* %2, align 4
  br label %23

12:                                               ; preds = %8
  %13 = load i32, i32* %3, align 4
  %14 = sub nsw i32 %13, 1
  %15 = call float @f(i32 %14)
  %16 = load i32, i32* %3, align 4
  %17 = sub nsw i32 %16, 2
  %18 = call float @f(i32 %17)
  %19 = fadd float %15, %18
  %20 = fptosi float %19 to i32
  store i32 %20, i32* %4, align 4
  %21 = load i32, i32* %4, align 4
  %22 = sitofp i32 %21 to float
  store float %22, float* %2, align 4
  br label %23

23:                                               ; preds = %12, %11, %7
  %24 = load float, float* %2, align 4
  ret float %24
}

; Function Attrs: noinline nounwind uwtable
define dso_local i32 @main(i32 %0, i8** %1) #0 {
  %3 = alloca i32, align 4
  %4 = alloca i32, align 4
  %5 = alloca i8**, align 8
  %6 = alloca i32, align 4
  %7 = alloca i32, align 4
  %8 = alloca i32, align 4
  %9 = alloca i32, align 4
  %10 = alloca float, align 4
  store i32 0, i32* %3, align 4
  store i32 %0, i32* %4, align 4
  store i8** %1, i8*** %5, align 8
  %11 = call i32 (i8*, ...) @__isoc99_scanf(i8* getelementptr inbounds ([3 x i8], [3 x i8]* @.str, i64 0, i64 0), i32* %6)
  store i32 0, i32* %8, align 4
  br label %12

12:                                               ; preds = %38, %2
  %13 = load i32, i32* %8, align 4
  %14 = load i32, i32* %6, align 4
  %15 = icmp slt i32 %13, %14
  br i1 %15, label %16, label %41

16:                                               ; preds = %12
  store float 0.000000e+00, float* %10, align 4
  %17 = call i32 (i8*, ...) @__isoc99_scanf(i8* getelementptr inbounds ([3 x i8], [3 x i8]* @.str, i64 0, i64 0), i32* %7)
  store i32 1, i32* %9, align 4
  br label %18

18:                                               ; preds = %31, %16
  %19 = load i32, i32* %9, align 4
  %20 = load i32, i32* %7, align 4
  %21 = icmp sle i32 %19, %20
  br i1 %21, label %22, label %34

22:                                               ; preds = %18
  %23 = load i32, i32* %9, align 4
  %24 = add nsw i32 %23, 1
  %25 = call float @f(i32 %24)
  %26 = load i32, i32* %9, align 4
  %27 = call float @f(i32 %26)
  %28 = fdiv float %25, %27
  %29 = load float, float* %10, align 4
  %30 = fadd float %29, %28
  store float %30, float* %10, align 4
  br label %31

31:                                               ; preds = %22
  %32 = load i32, i32* %9, align 4
  %33 = add nsw i32 %32, 1
  store i32 %33, i32* %9, align 4
  br label %18

34:                                               ; preds = %18
  %35 = load float, float* %10, align 4
  %36 = fpext float %35 to double
  %37 = call i32 (i8*, ...) @printf(i8* getelementptr inbounds ([6 x i8], [6 x i8]* @.str.1, i64 0, i64 0), double %36)
  br label %38

38:                                               ; preds = %34
  %39 = load i32, i32* %8, align 4
  %40 = add nsw i32 %39, 1
  store i32 %40, i32* %8, align 4
  br label %12

41:                                               ; preds = %12
  %42 = load i32, i32* %3, align 4
  ret i32 %42
}

declare dso_local i32 @__isoc99_scanf(i8*, ...) #1

declare dso_local i32 @printf(i8*, ...) #1


!llvm.module.flags = !{!0}
!llvm.ident = !{!1}

!0 = !{i32 1, !"wchar_size", i32 4}
!1 = !{!"clang version 10.0.0-4ubuntu1 "}
