; ModuleID = 'source-C-CXX/28/717.c'
source_filename = "source-C-CXX/28/717.c"
target datalayout = "e-m:e-p270:32:32-p271:32:32-p272:64:64-i64:64-f80:128-n8:16:32:64-S128"
target triple = "x86_64-pc-linux-gnu"

@.str = private unnamed_addr constant [3 x i8] c"%d\00", align 1
@.str.1 = private unnamed_addr constant [6 x i8] c"%.3f\0A\00", align 1

; Function Attrs: nofree nosync nounwind readnone sspstrong uwtable
define dso_local float @f(i32 %0) local_unnamed_addr #0 {
  switch i32 %0, label %5 [
    i32 1, label %3
    i32 2, label %2
  ]

2:                                                ; preds = %1
  br label %3

3:                                                ; preds = %2, %1, %5
  %4 = phi float [ %12, %5 ], [ 2.000000e+00, %2 ], [ 1.000000e+00, %1 ]
  ret float %4

5:                                                ; preds = %1
  %6 = add nsw i32 %0, -1
  %7 = tail call float @f(i32 %6)
  %8 = add nsw i32 %0, -2
  %9 = tail call float @f(i32 %8)
  %10 = fadd float %7, %9
  %11 = fptosi float %10 to i32
  %12 = sitofp i32 %11 to float
  br label %3
}

; Function Attrs: argmemonly mustprogress nofree nosync nounwind willreturn
declare void @llvm.lifetime.start.p0i8(i64 immarg, i8* nocapture) #1

; Function Attrs: argmemonly mustprogress nofree nosync nounwind willreturn
declare void @llvm.lifetime.end.p0i8(i64 immarg, i8* nocapture) #1

; Function Attrs: nofree nounwind sspstrong uwtable
define dso_local i32 @main(i32 %0, i8** nocapture readnone %1) local_unnamed_addr #2 {
  %3 = alloca i32, align 4
  %4 = alloca i32, align 4
  %5 = bitcast i32* %3 to i8*
  call void @llvm.lifetime.start.p0i8(i64 4, i8* nonnull %5) #4
  %6 = bitcast i32* %4 to i8*
  call void @llvm.lifetime.start.p0i8(i64 4, i8* nonnull %6) #4
  %7 = call i32 (i8*, ...) @__isoc99_scanf(i8* getelementptr inbounds ([3 x i8], [3 x i8]* @.str, i64 0, i64 0), i32* nonnull %3)
  %8 = load i32, i32* %3, align 4, !tbaa !5
  %9 = icmp sgt i32 %8, 0
  br i1 %9, label %10, label %31

10:                                               ; preds = %2, %24
  %11 = phi i32 [ %28, %24 ], [ 0, %2 ]
  %12 = call i32 (i8*, ...) @__isoc99_scanf(i8* getelementptr inbounds ([3 x i8], [3 x i8]* @.str, i64 0, i64 0), i32* nonnull %4)
  %13 = load i32, i32* %4, align 4, !tbaa !5
  %14 = icmp slt i32 %13, 1
  br i1 %14, label %24, label %15

15:                                               ; preds = %10, %15
  %16 = phi float [ %22, %15 ], [ 0.000000e+00, %10 ]
  %17 = phi i32 [ %18, %15 ], [ 1, %10 ]
  %18 = add nuw i32 %17, 1
  %19 = call float @f(i32 %18)
  %20 = call float @f(i32 %17)
  %21 = fdiv float %19, %20
  %22 = fadd float %16, %21
  %23 = icmp eq i32 %17, %13
  br i1 %23, label %24, label %15, !llvm.loop !9

24:                                               ; preds = %15, %10
  %25 = phi float [ 0.000000e+00, %10 ], [ %22, %15 ]
  %26 = fpext float %25 to double
  %27 = call i32 (i8*, ...) @printf(i8* nonnull dereferenceable(1) getelementptr inbounds ([6 x i8], [6 x i8]* @.str.1, i64 0, i64 0), double %26)
  %28 = add nuw nsw i32 %11, 1
  %29 = load i32, i32* %3, align 4, !tbaa !5
  %30 = icmp slt i32 %28, %29
  br i1 %30, label %10, label %31, !llvm.loop !11

31:                                               ; preds = %24, %2
  call void @llvm.lifetime.end.p0i8(i64 4, i8* nonnull %6) #4
  call void @llvm.lifetime.end.p0i8(i64 4, i8* nonnull %5) #4
  ret i32 0
}

; Function Attrs: nofree nounwind
declare noundef i32 @__isoc99_scanf(i8* nocapture noundef readonly, ...) local_unnamed_addr #3

; Function Attrs: nofree nounwind
declare noundef i32 @printf(i8* nocapture noundef readonly, ...) local_unnamed_addr #3


!llvm.module.flags = !{!0, !1, !2, !3}
!llvm.ident = !{!4}

!0 = !{i32 1, !"wchar_size", i32 4}
!1 = !{i32 7, !"PIC Level", i32 2}
!2 = !{i32 7, !"PIE Level", i32 2}
!3 = !{i32 7, !"uwtable", i32 1}
!4 = !{!"clang version 13.0.0"}
!5 = !{!6, !6, i64 0}
!6 = !{!"int", !7, i64 0}
!7 = !{!"omnipotent char", !8, i64 0}
!8 = !{!"Simple C/C++ TBAA"}
!9 = distinct !{!9, !10}
!10 = !{!"llvm.loop.mustprogress"}
!11 = distinct !{!11, !10}
